target datalayout = "e-m:e-p270:32:32-p271:32:32-p272:64:64-i64:64-i128:128-f80:128-n8:16:32:64-S128"
target triple = "x86_64-pc-linux-gnu"

%struct.nghttp2_stream = type { %struct.nghttp2_pq_entry, %struct.nghttp2_pq, i64, i64, i64, i64, i64, i64, ptr, ptr, ptr, ptr, ptr, ptr, ptr, ptr, i64, i32, i32, i32, i32, i32, i32, i32, i32, i32, i32, i16, i32, i8, i8, i8, i8, i8, i8 }
%struct.nghttp2_pq_entry = type { i64 }
%struct.nghttp2_pq = type { ptr, ptr, i64, i64, ptr }

; Function Attrs: nounwind uwtable
define dso_local i32 @nghttp2_http_on_data_chunk(ptr noundef %0, i64 noundef %1) #0 {
  %3 = alloca i32, align 4
  %4 = alloca ptr, align 8
  %5 = alloca i64, align 8
  store ptr %0, ptr %4, align 8, !tbaa !9
  store i64 %1, ptr %5, align 8, !tbaa !23
  %6 = load i64, ptr %5, align 8, !tbaa !23
  %7 = load ptr, ptr %4, align 8, !tbaa !9
  %8 = getelementptr inbounds nuw %struct.nghttp2_stream, ptr %7, i32 0, i32 3
  %9 = load i64, ptr %8, align 8, !tbaa !64
  %10 = add nsw i64 %9, %6
  store i64 %10, ptr %8, align 8, !tbaa !64
  %11 = load ptr, ptr %4, align 8, !tbaa !9
  %12 = getelementptr inbounds nuw %struct.nghttp2_stream, ptr %11, i32 0, i32 28
  %13 = load i32, ptr %12, align 4, !tbaa !26
  %14 = and i32 %13, 16384
  %15 = icmp ne i32 %14, 0
  br i1 %15, label %29, label %16

16:                                               ; preds = %2
  %17 = load ptr, ptr %4, align 8, !tbaa !9
  %18 = getelementptr inbounds nuw %struct.nghttp2_stream, ptr %17, i32 0, i32 2
  %19 = load i64, ptr %18, align 8, !tbaa !61
  %20 = icmp ne i64 %19, -1
  br i1 %20, label %21, label %30

21:                                               ; preds = %16
  %22 = load ptr, ptr %4, align 8, !tbaa !9
  %23 = getelementptr inbounds nuw %struct.nghttp2_stream, ptr %22, i32 0, i32 3
  %24 = load i64, ptr %23, align 8, !tbaa !64
  %25 = load ptr, ptr %4, align 8, !tbaa !9
  %26 = getelementptr inbounds nuw %struct.nghttp2_stream, ptr %25, i32 0, i32 2
  %27 = load i64, ptr %26, align 8, !tbaa !61
  %28 = icmp sgt i64 %24, %27
  br i1 %28, label %29, label %30

29:                                               ; preds = %21, %2
  store i32 -1, ptr %3, align 4
  br label %31

30:                                               ; preds = %21, %16
  store i32 0, ptr %3, align 4
  br label %31

31:                                               ; preds = %30, %29
  %32 = load i32, ptr %3, align 4
  ret i32 %32
}